; Function Attrs: mustprogress nounwind uwtable
define dso_local noundef ptr @_ZN4llvm13StringMapImpl9RemoveKeyENS_9StringRefE(ptr nocapture noundef nonnull align 8 dereferenceable(24) %0, ptr %1, i64 %2) local_unnamed_addr #0 align 2 {
  %.fr26.i.i = freeze i64 %2
  %4 = tail call noundef i64 @_ZN4llvm11xxh3_64bitsENS_8ArrayRefIhEE(ptr %1, i64 %.fr26.i.i) #9
  %5 = trunc i64 %4 to i32
  %6 = getelementptr inbounds nuw i8, ptr %0, i64 8
  %7 = load i32, ptr %6, align 8
  %8 = icmp eq i32 %7, 0
  br i1 %8, label %_ZNK4llvm13StringMapImpl7FindKeyENS_9StringRefE.exit.thread, label %9

9:                                                ; preds = %3
  %10 = add i32 %7, -1
  %11 = load ptr, ptr %0, align 8
  %12 = zext i32 %7 to i64
  %13 = getelementptr inbounds ptr, ptr %11, i64 %12
  %14 = getelementptr inbounds i8, ptr %13, i64 8
  %15 = getelementptr inbounds nuw i8, ptr %0, i64 20
  %16 = load i32, ptr %15, align 4
  %17 = zext i32 %16 to i64
  %18 = icmp eq i64 %.fr26.i.i, 0
  br i1 %18, label %.split.us.i.i, label %.split.i.i

.split.us.i.i:                                    ; preds = %9, %_ZN4llvmeqENS_9StringRefES0_.exit.thread23.us.i.i
  %.020.us.i.i = phi i32 [ %29, %_ZN4llvmeqENS_9StringRefES0_.exit.thread23.us.i.i ], [ 1, %9 ]
  %.pn.us.i.i = phi i32 [ %28, %_ZN4llvmeqENS_9StringRefES0_.exit.thread23.us.i.i ], [ %5, %9 ]
  %.019.us.i.i = and i32 %.pn.us.i.i, %10
  %19 = zext i32 %.019.us.i.i to i64
  %20 = getelementptr inbounds ptr, ptr %11, i64 %19
  %21 = load ptr, ptr %20, align 8
  %magicptr.us.i.i = ptrtoint ptr %21 to i64
  switch i64 %magicptr.us.i.i, label %22 [
    i64 0, label %_ZNK4llvm13StringMapImpl7FindKeyENS_9StringRefE.exit.thread
    i64 -8, label %_ZN4llvmeqENS_9StringRefES0_.exit.thread23.us.i.i
  ]

22:                                               ; preds = %.split.us.i.i
  %23 = getelementptr inbounds i32, ptr %14, i64 %19
  %24 = load i32, ptr %23, align 4
  %25 = icmp eq i32 %24, %5
  br i1 %25, label %26, label %_ZN4llvmeqENS_9StringRefES0_.exit.thread23.us.i.i

26:                                               ; preds = %22
  %27 = load i64, ptr %21, align 8
  %.not.i.us.i.i = icmp eq i64 %27, 0
  br i1 %.not.i.us.i.i, label %_ZNK4llvm13StringMapImpl7FindKeyENS_9StringRefE.exit, label %_ZN4llvmeqENS_9StringRefES0_.exit.thread23.us.i.i

_ZN4llvmeqENS_9StringRefES0_.exit.thread23.us.i.i: ; preds = %26, %22, %.split.us.i.i
  %28 = add i32 %.019.us.i.i, %.020.us.i.i
  %29 = add i32 %.020.us.i.i, 1
  br label %.split.us.i.i, !llvm.loop !6

.split.i.i:                                       ; preds = %9, %_ZN4llvmeqENS_9StringRefES0_.exit.thread23.i.i
  %.020.i.i = phi i32 [ %42, %_ZN4llvmeqENS_9StringRefES0_.exit.thread23.i.i ], [ 1, %9 ]
  %.pn.i.i = phi i32 [ %41, %_ZN4llvmeqENS_9StringRefES0_.exit.thread23.i.i ], [ %5, %9 ]
  %.019.i.i = and i32 %.pn.i.i, %10
  %30 = zext i32 %.019.i.i to i64
  %31 = getelementptr inbounds ptr, ptr %11, i64 %30
  %32 = load ptr, ptr %31, align 8
  %magicptr.i.i = ptrtoint ptr %32 to i64
  switch i64 %magicptr.i.i, label %33 [
    i64 0, label %_ZNK4llvm13StringMapImpl7FindKeyENS_9StringRefE.exit.thread
    i64 -8, label %_ZN4llvmeqENS_9StringRefES0_.exit.thread23.i.i
  ]

33:                                               ; preds = %.split.i.i
  %34 = getelementptr inbounds i32, ptr %14, i64 %30
  %35 = load i32, ptr %34, align 4
  %36 = icmp eq i32 %35, %5
  br i1 %36, label %37, label %_ZN4llvmeqENS_9StringRefES0_.exit.thread23.i.i

37:                                               ; preds = %33
  %38 = load i64, ptr %32, align 8
  %.not.i.i.i = icmp eq i64 %.fr26.i.i, %38
  br i1 %.not.i.i.i, label %_ZN4llvmeqENS_9StringRefES0_.exit.i.i, label %_ZN4llvmeqENS_9StringRefES0_.exit.thread23.i.i

_ZN4llvmeqENS_9StringRefES0_.exit.i.i:            ; preds = %37
  %39 = getelementptr inbounds i8, ptr %32, i64 %17
  %bcmp.i.i.i = tail call i32 @bcmp(ptr readonly %1, ptr nonnull %39, i64 %.fr26.i.i)
  %40 = icmp eq i32 %bcmp.i.i.i, 0
  br i1 %40, label %_ZNK4llvm13StringMapImpl7FindKeyENS_9StringRefE.exit, label %_ZN4llvmeqENS_9StringRefES0_.exit.thread23.i.i

_ZN4llvmeqENS_9StringRefES0_.exit.thread23.i.i:   ; preds = %_ZN4llvmeqENS_9StringRefES0_.exit.i.i, %37, %33, %.split.i.i
  %41 = add i32 %.019.i.i, %.020.i.i
  %42 = add i32 %.020.i.i, 1
  br label %.split.i.i, !llvm.loop !6

_ZNK4llvm13StringMapImpl7FindKeyENS_9StringRefE.exit: ; preds = %_ZN4llvmeqENS_9StringRefES0_.exit.i.i, %26
  %.0.i.i = phi i32 [ %.019.us.i.i, %26 ], [ %.019.i.i, %_ZN4llvmeqENS_9StringRefES0_.exit.i.i ]
  %43 = icmp eq i32 %.0.i.i, -1
  br i1 %43, label %_ZNK4llvm13StringMapImpl7FindKeyENS_9StringRefE.exit.thread, label %44

44:                                               ; preds = %_ZNK4llvm13StringMapImpl7FindKeyENS_9StringRefE.exit
  %45 = sext i32 %.0.i.i to i64
  %46 = getelementptr inbounds ptr, ptr %11, i64 %45
  %47 = load ptr, ptr %46, align 8
  store ptr inttoptr (i64 -8 to ptr), ptr %46, align 8
  %48 = getelementptr inbounds nuw i8, ptr %0, i64 12
  %49 = load i32, ptr %48, align 4
  %50 = add i32 %49, -1
  store i32 %50, ptr %48, align 4
  %51 = getelementptr inbounds nuw i8, ptr %0, i64 16
  %52 = load i32, ptr %51, align 8
  %53 = add i32 %52, 1
  store i32 %53, ptr %51, align 8
  br label %_ZNK4llvm13StringMapImpl7FindKeyENS_9StringRefE.exit.thread

_ZNK4llvm13StringMapImpl7FindKeyENS_9StringRefE.exit.thread: ; preds = %.split.i.i, %.split.us.i.i, %3, %_ZNK4llvm13StringMapImpl7FindKeyENS_9StringRefE.exit, %44
  %.0 = phi ptr [ %47, %44 ], [ null, %_ZNK4llvm13StringMapImpl7FindKeyENS_9StringRefE.exit ], [ null, %3 ], [ null, %.split.us.i.i ], [ null, %.split.i.i ]
  ret ptr %.0
}